target datalayout = "e-m:e-p270:32:32-p271:32:32-p272:64:64-i64:64-i128:128-f80:128-n8:16:32:64-S128"
target triple = "x86_64-pc-linux-gnu"

%"class.icu_77::UObject" = type { ptr }
%"class.icu_77::UnicodeString" = type { %"class.icu_77::Replaceable", %"union.icu_77::UnicodeString::StackBufferOrFields" }
%"class.icu_77::Replaceable" = type { %"class.icu_77::UObject" }
%"union.icu_77::UnicodeString::StackBufferOrFields" = type { %struct.anon.0, [32 x i8] }
%struct.anon.0 = type { i16, i32, i32, ptr }
%struct.UTransPosition = type { i32, i32, i32, i32 }

; Function Attrs: inlinehint mustprogress nounwind uwtable
define linkonce_odr noundef i32 @_ZNK6icu_7713UnicodeString14getShortLengthEv(ptr noundef nonnull align 8 dereferenceable(64) %0) #2 comdat align 2 {
  %2 = alloca ptr, align 8
  store ptr %0, ptr %2, align 8, !tbaa !25
  %3 = load ptr, ptr %2, align 8
  %4 = getelementptr inbounds nuw %"class.icu_77::UnicodeString", ptr %3, i32 0, i32 1
  %5 = getelementptr inbounds nuw %struct.anon.0, ptr %4, i32 0, i32 0
  %6 = load i16, ptr %5, align 8, !tbaa !41
  %7 = sext i16 %6 to i32
  %8 = ashr i32 %7, 5
  ret i32 %8
}

; Function Attrs: inlinehint mustprogress nounwind uwtable
define linkonce_odr noundef signext i8 @_ZNK6icu_7713UnicodeString14hasShortLengthEv(ptr noundef nonnull align 8 dereferenceable(64) %0) #2 comdat align 2 {
  %2 = alloca ptr, align 8
  store ptr %0, ptr %2, align 8, !tbaa !25
  %3 = load ptr, ptr %2, align 8
  %4 = getelementptr inbounds nuw %"class.icu_77::UnicodeString", ptr %3, i32 0, i32 1
  %5 = getelementptr inbounds nuw %struct.anon.0, ptr %4, i32 0, i32 0
  %6 = load i16, ptr %5, align 8, !tbaa !41
  %7 = sext i16 %6 to i32
  %8 = icmp sge i32 %7, 0
  %9 = zext i1 %8 to i8
  ret i8 %9
}

; Function Attrs: inlinehint mustprogress uwtable
define linkonce_odr noundef zeroext i16 @_ZNK6icu_7711Replaceable6charAtEi(ptr noundef nonnull align 8 dereferenceable(8) %0, i32 noundef %1) #3 comdat align 2 {
  %3 = alloca ptr, align 8
  %4 = alloca i32, align 4
  store ptr %0, ptr %3, align 8, !tbaa !42
  store i32 %1, ptr %4, align 4, !tbaa !14
  %5 = load ptr, ptr %3, align 8
  %6 = load i32, ptr %4, align 4, !tbaa !14
  %7 = load ptr, ptr %5, align 8, !tbaa !29
  %8 = getelementptr inbounds ptr, ptr %7, i64 9
  %9 = load ptr, ptr %8, align 8
  %10 = call noundef zeroext i16 %9(ptr noundef nonnull align 8 dereferenceable(8) %5, i32 noundef %6)
  ret i16 %10
}

; Function Attrs: inlinehint mustprogress uwtable
define linkonce_odr noundef i32 @_ZNK6icu_7713UnicodeString6lengthEv(ptr noundef nonnull align 8 dereferenceable(64) %0) #3 comdat align 2 {
  %2 = alloca ptr, align 8
  store ptr %0, ptr %2, align 8, !tbaa !25
  %3 = load ptr, ptr %2, align 8
  %4 = call noundef signext i8 @_ZNK6icu_7713UnicodeString14hasShortLengthEv(ptr noundef nonnull align 8 dereferenceable(64) %3)
  %5 = icmp ne i8 %4, 0
  br i1 %5, label %6, label %8

6:                                                ; preds = %1
  %7 = call noundef i32 @_ZNK6icu_7713UnicodeString14getShortLengthEv(ptr noundef nonnull align 8 dereferenceable(64) %3)
  br label %12

8:                                                ; preds = %1
  %9 = getelementptr inbounds nuw %"class.icu_77::UnicodeString", ptr %3, i32 0, i32 1
  %10 = getelementptr inbounds nuw %struct.anon.0, ptr %9, i32 0, i32 1
  %11 = load i32, ptr %10, align 4, !tbaa !41
  br label %12

12:                                               ; preds = %8, %6
  %13 = phi i32 [ %7, %6 ], [ %11, %8 ]
  ret i32 %13
}

; Function Attrs: inlinehint mustprogress nounwind uwtable
define internal noundef signext i8 @_ZN6icu_77L15positionIsValidER14UTransPositioni(ptr noundef nonnull align 4 dereferenceable(16) %0, i32 noundef %1) #2 {
  %3 = alloca ptr, align 8
  %4 = alloca i32, align 4
  store ptr %0, ptr %3, align 8, !tbaa !49
  store i32 %1, ptr %4, align 4, !tbaa !14
  %5 = load ptr, ptr %3, align 8, !tbaa !49
  %6 = getelementptr inbounds nuw %struct.UTransPosition, ptr %5, i32 0, i32 0
  %7 = load i32, ptr %6, align 4, !tbaa !44
  %8 = icmp slt i32 %7, 0
  br i1 %8, label %39, label %9

9:                                                ; preds = %2
  %10 = load ptr, ptr %3, align 8, !tbaa !49
  %11 = getelementptr inbounds nuw %struct.UTransPosition, ptr %10, i32 0, i32 2
  %12 = load i32, ptr %11, align 4, !tbaa !47
  %13 = load ptr, ptr %3, align 8, !tbaa !49
  %14 = getelementptr inbounds nuw %struct.UTransPosition, ptr %13, i32 0, i32 0
  %15 = load i32, ptr %14, align 4, !tbaa !44
  %16 = icmp slt i32 %12, %15
  br i1 %16, label %39, label %17

17:                                               ; preds = %9
  %18 = load ptr, ptr %3, align 8, !tbaa !49
  %19 = getelementptr inbounds nuw %struct.UTransPosition, ptr %18, i32 0, i32 3
  %20 = load i32, ptr %19, align 4, !tbaa !48
  %21 = load ptr, ptr %3, align 8, !tbaa !49
  %22 = getelementptr inbounds nuw %struct.UTransPosition, ptr %21, i32 0, i32 2
  %23 = load i32, ptr %22, align 4, !tbaa !47
  %24 = icmp slt i32 %20, %23
  br i1 %24, label %39, label %25

25:                                               ; preds = %17
  %26 = load ptr, ptr %3, align 8, !tbaa !49
  %27 = getelementptr inbounds nuw %struct.UTransPosition, ptr %26, i32 0, i32 1
  %28 = load i32, ptr %27, align 4, !tbaa !46
  %29 = load ptr, ptr %3, align 8, !tbaa !49
  %30 = getelementptr inbounds nuw %struct.UTransPosition, ptr %29, i32 0, i32 3
  %31 = load i32, ptr %30, align 4, !tbaa !48
  %32 = icmp slt i32 %28, %31
  br i1 %32, label %39, label %33

33:                                               ; preds = %25
  %34 = load i32, ptr %4, align 4, !tbaa !14
  %35 = load ptr, ptr %3, align 8, !tbaa !49
  %36 = getelementptr inbounds nuw %struct.UTransPosition, ptr %35, i32 0, i32 1
  %37 = load i32, ptr %36, align 4, !tbaa !46
  %38 = icmp slt i32 %34, %37
  br label %39

39:                                               ; preds = %33, %25, %17, %9, %2
  %40 = phi i1 [ true, %25 ], [ true, %17 ], [ true, %9 ], [ true, %2 ], [ %38, %33 ]
  %41 = xor i1 %40, true
  %42 = zext i1 %41 to i8
  ret i8 %42
}

; Function Attrs: inlinehint mustprogress uwtable
define linkonce_odr noundef i32 @_ZNK6icu_7711Replaceable6lengthEv(ptr noundef nonnull align 8 dereferenceable(8) %0) #3 comdat align 2 {
  %2 = alloca ptr, align 8
  store ptr %0, ptr %2, align 8, !tbaa !42
  %3 = load ptr, ptr %2, align 8
  %4 = load ptr, ptr %3, align 8, !tbaa !29
  %5 = getelementptr inbounds ptr, ptr %4, i64 8
  %6 = load ptr, ptr %5, align 8
  %7 = call noundef i32 %6(ptr noundef nonnull align 8 dereferenceable(8) %3)
  ret i32 %7
}

; Function Attrs: inlinehint mustprogress nounwind uwtable
define internal noundef signext i8 @_ZL9U_FAILURE10UErrorCode(i32 noundef %0) #2 {
  %2 = alloca i32, align 4
  store i32 %0, ptr %2, align 4, !tbaa !15
  %3 = load i32, ptr %2, align 4, !tbaa !15
  %4 = icmp sgt i32 %3, 0
  %5 = zext i1 %4 to i8
  ret i8 %5
}

; Function Attrs: mustprogress uwtable
define void @_ZNK6icu_7714Transliterator14_transliterateERNS_11ReplaceableER14UTransPositionPKNS_13UnicodeStringER10UErrorCode(ptr noundef nonnull align 8 dereferenceable(84) %0, ptr noundef nonnull align 8 dereferenceable(8) %1, ptr noundef nonnull align 4 dereferenceable(16) %2, ptr noundef %3, ptr noundef nonnull align 4 dereferenceable(4) %4) #1 align 2 {
  %6 = alloca ptr, align 8
  %7 = alloca ptr, align 8
  %8 = alloca ptr, align 8
  %9 = alloca ptr, align 8
  %10 = alloca ptr, align 8
  store ptr %0, ptr %6, align 8, !tbaa !23
  store ptr %1, ptr %7, align 8, !tbaa !42
  store ptr %2, ptr %8, align 8, !tbaa !49
  store ptr %3, ptr %9, align 8, !tbaa !25
  store ptr %4, ptr %10, align 8, !tbaa !22
  %11 = load ptr, ptr %6, align 8
  %12 = load ptr, ptr %10, align 8, !tbaa !22
  %13 = load i32, ptr %12, align 4, !tbaa !15
  %14 = call noundef signext i8 @_ZL9U_FAILURE10UErrorCode(i32 noundef %13)
  %15 = icmp ne i8 %14, 0
  br i1 %15, label %16, label %17

16:                                               ; preds = %5
  br label %74

17:                                               ; preds = %5
  %18 = load ptr, ptr %8, align 8, !tbaa !49
  %19 = load ptr, ptr %7, align 8, !tbaa !42
  %20 = call noundef i32 @_ZNK6icu_7711Replaceable6lengthEv(ptr noundef nonnull align 8 dereferenceable(8) %19)
  %21 = call noundef signext i8 @_ZN6icu_77L15positionIsValidER14UTransPositioni(ptr noundef nonnull align 4 dereferenceable(16) %18, i32 noundef %20)
  %22 = icmp ne i8 %21, 0
  br i1 %22, label %25, label %23

23:                                               ; preds = %17
  %24 = load ptr, ptr %10, align 8, !tbaa !22
  store i32 1, ptr %24, align 4, !tbaa !15
  br label %74

25:                                               ; preds = %17
  %26 = load ptr, ptr %9, align 8, !tbaa !25
  %27 = icmp ne ptr %26, null
  br i1 %27, label %28, label %52

28:                                               ; preds = %25
  %29 = load ptr, ptr %7, align 8, !tbaa !42
  %30 = load ptr, ptr %8, align 8, !tbaa !49
  %31 = getelementptr inbounds nuw %struct.UTransPosition, ptr %30, i32 0, i32 3
  %32 = load i32, ptr %31, align 4, !tbaa !48
  %33 = load ptr, ptr %8, align 8, !tbaa !49
  %34 = getelementptr inbounds nuw %struct.UTransPosition, ptr %33, i32 0, i32 3
  %35 = load i32, ptr %34, align 4, !tbaa !48
  %36 = load ptr, ptr %9, align 8, !tbaa !25
  %37 = load ptr, ptr %29, align 8, !tbaa !29
  %38 = getelementptr inbounds ptr, ptr %37, i64 4
  %39 = load ptr, ptr %38, align 8
  call void %39(ptr noundef nonnull align 8 dereferenceable(8) %29, i32 noundef %32, i32 noundef %35, ptr noundef nonnull align 8 dereferenceable(64) %36)
  %40 = load ptr, ptr %9, align 8, !tbaa !25
  %41 = call noundef i32 @_ZNK6icu_7713UnicodeString6lengthEv(ptr noundef nonnull align 8 dereferenceable(64) %40)
  %42 = load ptr, ptr %8, align 8, !tbaa !49
  %43 = getelementptr inbounds nuw %struct.UTransPosition, ptr %42, i32 0, i32 3
  %44 = load i32, ptr %43, align 4, !tbaa !48
  %45 = add nsw i32 %44, %41
  store i32 %45, ptr %43, align 4, !tbaa !48
  %46 = load ptr, ptr %9, align 8, !tbaa !25
  %47 = call noundef i32 @_ZNK6icu_7713UnicodeString6lengthEv(ptr noundef nonnull align 8 dereferenceable(64) %46)
  %48 = load ptr, ptr %8, align 8, !tbaa !49
  %49 = getelementptr inbounds nuw %struct.UTransPosition, ptr %48, i32 0, i32 1
  %50 = load i32, ptr %49, align 4, !tbaa !46
  %51 = add nsw i32 %50, %47
  store i32 %51, ptr %49, align 4, !tbaa !46
  br label %52

52:                                               ; preds = %28, %25
  %53 = load ptr, ptr %8, align 8, !tbaa !49
  %54 = getelementptr inbounds nuw %struct.UTransPosition, ptr %53, i32 0, i32 3
  %55 = load i32, ptr %54, align 4, !tbaa !48
  %56 = icmp sgt i32 %55, 0
  br i1 %56, label %57, label %68

57:                                               ; preds = %52
  %58 = load ptr, ptr %7, align 8, !tbaa !42
  %59 = load ptr, ptr %8, align 8, !tbaa !49
  %60 = getelementptr inbounds nuw %struct.UTransPosition, ptr %59, i32 0, i32 3
  %61 = load i32, ptr %60, align 4, !tbaa !48
  %62 = sub nsw i32 %61, 1
  %63 = call noundef zeroext i16 @_ZNK6icu_7711Replaceable6charAtEi(ptr noundef nonnull align 8 dereferenceable(8) %58, i32 noundef %62)
  %64 = zext i16 %63 to i32
  %65 = and i32 %64, -1024
  %66 = icmp eq i32 %65, 55296
  br i1 %66, label %67, label %68

67:                                               ; preds = %57
  br label %74

68:                                               ; preds = %57, %52
  %69 = load ptr, ptr %7, align 8, !tbaa !42
  %70 = load ptr, ptr %8, align 8, !tbaa !49
  %71 = load ptr, ptr %11, align 8, !tbaa !29
  %72 = getelementptr inbounds ptr, ptr %71, i64 12
  %73 = load ptr, ptr %72, align 8
  call void %73(ptr noundef nonnull align 8 dereferenceable(84) %11, ptr noundef nonnull align 8 dereferenceable(8) %69, ptr noundef nonnull align 4 dereferenceable(16) %70, i8 noundef signext 1, i8 noundef signext 1)
  br label %74

74:                                               ; preds = %68, %67, %23, %16
  ret void
}

; Function Attrs: mustprogress uwtable
define void @_ZNK6icu_7714Transliterator13transliterateERNS_11ReplaceableER14UTransPositionR10UErrorCode(ptr noundef nonnull align 8 dereferenceable(84) %0, ptr noundef nonnull align 8 dereferenceable(8) %1, ptr noundef nonnull align 4 dereferenceable(16) %2, ptr noundef nonnull align 4 dereferenceable(4) %3) unnamed_addr #1 align 2 {
  %5 = alloca ptr, align 8
  %6 = alloca ptr, align 8
  %7 = alloca ptr, align 8
  %8 = alloca ptr, align 8
  store ptr %0, ptr %5, align 8, !tbaa !23
  store ptr %1, ptr %6, align 8, !tbaa !42
  store ptr %2, ptr %7, align 8, !tbaa !49
  store ptr %3, ptr %8, align 8, !tbaa !22
  %9 = load ptr, ptr %5, align 8
  %10 = load ptr, ptr %6, align 8, !tbaa !42
  %11 = load ptr, ptr %7, align 8, !tbaa !49
  %12 = load ptr, ptr %8, align 8, !tbaa !22
  call void @_ZNK6icu_7714Transliterator14_transliterateERNS_11ReplaceableER14UTransPositionPKNS_13UnicodeStringER10UErrorCode(ptr noundef nonnull align 8 dereferenceable(84) %9, ptr noundef nonnull align 8 dereferenceable(8) %10, ptr noundef nonnull align 4 dereferenceable(16) %11, ptr noundef null, ptr noundef nonnull align 4 dereferenceable(4) %12)
  ret void
}