; Function Attrs: mustprogress uwtable
define void @_ZNK6icu_7714Transliterator13transliterateERNS_11ReplaceableER14UTransPositionR10UErrorCode(ptr noundef nonnull align 8 dereferenceable(84) %0, ptr noundef nonnull align 8 dereferenceable(8) %1, ptr noundef nonnull align 4 dereferenceable(16) %2, ptr noundef nonnull align 4 captures(none) dereferenceable(4) %3) unnamed_addr #1 align 2 {
  %5 = load i32, ptr %3, align 4, !tbaa !13
  %6 = icmp slt i32 %5, 1
  br i1 %6, label %7, label %_ZNK6icu_7714Transliterator14_transliterateERNS_11ReplaceableER14UTransPositionPKNS_13UnicodeStringER10UErrorCode.exit

7:                                                ; preds = %4
  %8 = load ptr, ptr %1, align 8, !tbaa !15
  %9 = getelementptr inbounds nuw i8, ptr %8, i64 64
  %10 = load ptr, ptr %9, align 8
  %11 = tail call noundef i32 %10(ptr noundef nonnull align 8 dereferenceable(8) %1)
  %12 = load i32, ptr %2, align 4, !tbaa !27
  %13 = icmp slt i32 %12, 0
  br i1 %13, label %_ZN6icu_77L15positionIsValidER14UTransPositioni.exit.thread.i, label %14

14:                                               ; preds = %7
  %15 = getelementptr inbounds nuw i8, ptr %2, i64 8
  %16 = load i32, ptr %15, align 4, !tbaa !30
  %17 = icmp slt i32 %16, %12
  br i1 %17, label %_ZN6icu_77L15positionIsValidER14UTransPositioni.exit.thread.i, label %18

18:                                               ; preds = %14
  %19 = getelementptr inbounds nuw i8, ptr %2, i64 12
  %20 = load i32, ptr %19, align 4, !tbaa !31
  %21 = icmp slt i32 %20, %16
  br i1 %21, label %_ZN6icu_77L15positionIsValidER14UTransPositioni.exit.thread.i, label %22

22:                                               ; preds = %18
  %23 = getelementptr inbounds nuw i8, ptr %2, i64 4
  %24 = load i32, ptr %23, align 4, !tbaa !29
  %25 = icmp slt i32 %24, %20
  %.not.i = icmp slt i32 %11, %24
  %or.cond.i = or i1 %25, %.not.i
  br i1 %or.cond.i, label %_ZN6icu_77L15positionIsValidER14UTransPositioni.exit.thread.i, label %26

_ZN6icu_77L15positionIsValidER14UTransPositioni.exit.thread.i: ; preds = %22, %18, %14, %7
  store i32 1, ptr %3, align 4, !tbaa !13
  br label %_ZNK6icu_7714Transliterator14_transliterateERNS_11ReplaceableER14UTransPositionPKNS_13UnicodeStringER10UErrorCode.exit

26:                                               ; preds = %22
  %.not = icmp eq i32 %20, 0
  br i1 %.not, label %35, label %27

27:                                               ; preds = %26
  %28 = add nsw i32 %20, -1
  %29 = load ptr, ptr %1, align 8, !tbaa !15
  %30 = getelementptr inbounds nuw i8, ptr %29, i64 72
  %31 = load ptr, ptr %30, align 8
  %32 = tail call noundef zeroext i16 %31(ptr noundef nonnull align 8 dereferenceable(8) %1, i32 noundef %28)
  %33 = and i16 %32, -1024
  %34 = icmp eq i16 %33, -10240
  br i1 %34, label %_ZNK6icu_7714Transliterator14_transliterateERNS_11ReplaceableER14UTransPositionPKNS_13UnicodeStringER10UErrorCode.exit, label %35

35:                                               ; preds = %27, %26
  %36 = load ptr, ptr %0, align 8, !tbaa !15
  %37 = getelementptr inbounds nuw i8, ptr %36, i64 96
  %38 = load ptr, ptr %37, align 8
  tail call void %38(ptr noundef nonnull align 8 dereferenceable(84) %0, ptr noundef nonnull align 8 dereferenceable(8) %1, ptr noundef nonnull align 4 dereferenceable(16) %2, i8 noundef signext 1, i8 noundef signext 1)
  br label %_ZNK6icu_7714Transliterator14_transliterateERNS_11ReplaceableER14UTransPositionPKNS_13UnicodeStringER10UErrorCode.exit

_ZNK6icu_7714Transliterator14_transliterateERNS_11ReplaceableER14UTransPositionPKNS_13UnicodeStringER10UErrorCode.exit: ; preds = %4, %_ZN6icu_77L15positionIsValidER14UTransPositioni.exit.thread.i, %27, %35
  ret void
}